target datalayout = "e-m:e-p270:32:32-p271:32:32-p272:64:64-i64:64-i128:128-f80:128-n8:16:32:64-S128"
target triple = "x86_64-pc-linux-gnu"

%struct.H5CX_node_t = type { %struct.H5CX_t, ptr }
%struct.H5CX_t = type { i64, ptr, i64, ptr, i64, ptr, i64, ptr, i64, ptr, i64, ptr, i64, i32, i64, i8, ptr, i8, ptr, i8, i32, i8, [3 x double], i8, i64, i8, i32, i8, %struct.H5Z_cb_t, i8, ptr, i8, %struct.H5T_vlen_alloc_info_t, i8, %struct.H5T_conv_cb_t, i8, i32, i8, i8, i8, i32, i8, i8, i32, i8, i8, i32, i8, i32, i8, i64, i8, i8, i8, i8, i8, ptr, i8, ptr, i8, i32, i8, i32, i8, %struct.H5VL_connector_prop_t, i8, ptr, i8 }
%struct.H5Z_cb_t = type { ptr, ptr }
%struct.H5T_vlen_alloc_info_t = type { ptr, ptr, ptr, ptr }
%struct.H5T_conv_cb_t = type { ptr, ptr }
%struct.H5VL_connector_prop_t = type { ptr, ptr }

@H5_libinit_g = external global i8, align 1
@H5_libterm_g = external global i8, align 1
@.str = private unnamed_addr constant [97 x i8] c"generated/home/dtcxzyw/WorkSpace/Projects/compilers/llvm-opt-benchmark/bench/hdf5/hdf5/src/H5G.c\00", align 1
@H5E_FUNC_g = external global i64, align 8
@H5E_CANTINIT_g = external global i64, align 8
@.str.1 = private unnamed_addr constant [30 x i8] c"library initialization failed\00", align 1
@H5G_init_g = external global i8, align 1
@.str.2 = private unnamed_addr constant [32 x i8] c"interface initialization failed\00", align 1
@H5E_CANTSET_g = external global i64, align 8
@.str.3 = private unnamed_addr constant [22 x i8] c"can't set API context\00", align 1
@H5E_SYM_g = external global i64, align 8
@H5E_CANTCREATE_g = external global i64, align 8
@__func__.H5Gopen2 = private unnamed_addr constant [9 x i8] c"H5Gopen2\00", align 1
@.str.25 = private unnamed_addr constant [35 x i8] c"unable to synchronously open group\00", align 1

; Function Attrs: nounwind uwtable
define i64 @H5Gopen2(i64 noundef %0, ptr noundef %1, i64 noundef %2) #0 {
  %4 = alloca i64, align 8
  %5 = alloca ptr, align 8
  %6 = alloca i64, align 8
  %7 = alloca i64, align 8
  %8 = alloca %struct.H5CX_node_t, align 8
  %9 = alloca i8, align 1
  %10 = alloca i8, align 1
  store i64 %0, ptr %4, align 8, !tbaa !3
  store ptr %1, ptr %5, align 8, !tbaa !7
  store i64 %2, ptr %6, align 8, !tbaa !3
  call void @llvm.lifetime.start.p0(i64 8, ptr %7) #5
  store i64 -1, ptr %7, align 8, !tbaa !3
  call void @llvm.lifetime.start.p0(i64 480, ptr %8) #5
  call void @llvm.memset.p0.i64(ptr align 8 %8, i8 0, i64 480, i1 false)
  call void @llvm.lifetime.start.p0(i64 1, ptr %9) #5
  store i8 0, ptr %9, align 1, !tbaa !10
  call void @llvm.lifetime.start.p0(i64 1, ptr %10) #5
  store i8 0, ptr %10, align 1, !tbaa !10
  br label %11

11:                                               ; preds = %3
  %12 = load i8, ptr @H5_libinit_g, align 1, !tbaa !10, !range !12, !noundef !13
  %13 = trunc i8 %12 to i1
  br i1 %13, label %18, label %14

14:                                               ; preds = %11
  %15 = load i8, ptr @H5_libterm_g, align 1, !tbaa !10, !range !12, !noundef !13
  %16 = trunc i8 %15 to i1
  %17 = xor i1 %16, true
  br label %18

18:                                               ; preds = %14, %11
  %19 = phi i1 [ false, %11 ], [ %17, %14 ]
  %20 = xor i1 %19, true
  %21 = xor i1 %20, true
  %22 = zext i1 %21 to i32
  %23 = sext i32 %22 to i64
  %24 = call i64 @llvm.expect.i64(i64 %23, i64 0)
  %25 = icmp ne i64 %24, 0
  br i1 %25, label %26, label %55

26:                                               ; preds = %18
  %27 = call i32 @H5_init_library()
  %28 = icmp slt i32 %27, 0
  %29 = xor i1 %28, true
  %30 = xor i1 %29, true
  %31 = zext i1 %30 to i32
  %32 = sext i32 %31 to i64
  %33 = call i64 @llvm.expect.i64(i64 %32, i64 0)
  %34 = icmp ne i64 %33, 0
  br i1 %34, label %35, label %54

35:                                               ; preds = %26
  br label %36

36:                                               ; preds = %35
  br label %37

37:                                               ; preds = %36
  br label %38

38:                                               ; preds = %37
  %39 = load i64, ptr @H5E_FUNC_g, align 8, !tbaa !3
  %40 = load i64, ptr @H5E_CANTINIT_g, align 8, !tbaa !3
  %41 = call i32 (ptr, ptr, i32, i64, i64, ptr, ...) @H5E_printf_stack(ptr noundef @.str, ptr noundef @__func__.H5Gopen2, i32 noundef 433, i64 noundef %39, i64 noundef %40, ptr noundef @.str.1)
  br label %42

42:                                               ; preds = %38
  br label %43

43:                                               ; preds = %42
  store i8 1, ptr %10, align 1, !tbaa !10
  %44 = load i8, ptr %10, align 1, !tbaa !10, !range !12, !noundef !13
  %45 = trunc i8 %44 to i1
  %46 = zext i1 %45 to i8
  store i8 %46, ptr %10, align 1, !tbaa !10
  br label %47

47:                                               ; preds = %43
  br label %48

48:                                               ; preds = %47
  br label %49

49:                                               ; preds = %48
  store i64 -1, ptr %7, align 8, !tbaa !3
  br label %154

50:                                               ; No predecessors!
  br label %51

51:                                               ; preds = %50
  br label %52

52:                                               ; preds = %51
  br label %53

53:                                               ; preds = %52
  br label %54

54:                                               ; preds = %53, %26
  br label %55

55:                                               ; preds = %54, %18
  %56 = load i8, ptr @H5G_init_g, align 1, !tbaa !10, !range !12, !noundef !13
  %57 = trunc i8 %56 to i1
  br i1 %57, label %62, label %58

58:                                               ; preds = %55
  %59 = load i8, ptr @H5_libterm_g, align 1, !tbaa !10, !range !12, !noundef !13
  %60 = trunc i8 %59 to i1
  %61 = xor i1 %60, true
  br label %62

62:                                               ; preds = %58, %55
  %63 = phi i1 [ false, %55 ], [ %61, %58 ]
  %64 = xor i1 %63, true
  %65 = xor i1 %64, true
  %66 = zext i1 %65 to i32
  %67 = sext i32 %66 to i64
  %68 = call i64 @llvm.expect.i64(i64 %67, i64 0)
  %69 = icmp ne i64 %68, 0
  br i1 %69, label %70, label %93

70:                                               ; preds = %62
  store i8 1, ptr @H5G_init_g, align 1, !tbaa !10
  %71 = call i32 @H5G__init_package()
  %72 = icmp slt i32 %71, 0
  br i1 %72, label %73, label %92

73:                                               ; preds = %70
  store i8 0, ptr @H5G_init_g, align 1, !tbaa !10
  br label %74

74:                                               ; preds = %73
  br label %75

75:                                               ; preds = %74
  br label %76

76:                                               ; preds = %75
  %77 = load i64, ptr @H5E_FUNC_g, align 8, !tbaa !3
  %78 = load i64, ptr @H5E_CANTINIT_g, align 8, !tbaa !3
  %79 = call i32 (ptr, ptr, i32, i64, i64, ptr, ...) @H5E_printf_stack(ptr noundef @.str, ptr noundef @__func__.H5Gopen2, i32 noundef 433, i64 noundef %77, i64 noundef %78, ptr noundef @.str.2)
  br label %80

80:                                               ; preds = %76
  br label %81

81:                                               ; preds = %80
  store i8 1, ptr %10, align 1, !tbaa !10
  %82 = load i8, ptr %10, align 1, !tbaa !10, !range !12, !noundef !13
  %83 = trunc i8 %82 to i1
  %84 = zext i1 %83 to i8
  store i8 %84, ptr %10, align 1, !tbaa !10
  br label %85

85:                                               ; preds = %81
  br label %86

86:                                               ; preds = %85
  br label %87

87:                                               ; preds = %86
  store i64 -1, ptr %7, align 8, !tbaa !3
  br label %154

88:                                               ; No predecessors!
  br label %89

89:                                               ; preds = %88
  br label %90

90:                                               ; preds = %89
  br label %91

91:                                               ; preds = %90
  br label %92

92:                                               ; preds = %91, %70
  br label %93

93:                                               ; preds = %92, %62
  br label %94

94:                                               ; preds = %93
  br label %95

95:                                               ; preds = %94
  br label %96

96:                                               ; preds = %95
  %97 = call i32 @H5CX_push(ptr noundef %8)
  %98 = icmp slt i32 %97, 0
  %99 = xor i1 %98, true
  %100 = xor i1 %99, true
  %101 = zext i1 %100 to i32
  %102 = sext i32 %101 to i64
  %103 = call i64 @llvm.expect.i64(i64 %102, i64 0)
  %104 = icmp ne i64 %103, 0
  br i1 %104, label %105, label %124

105:                                              ; preds = %96
  br label %106

106:                                              ; preds = %105
  br label %107

107:                                              ; preds = %106
  br label %108

108:                                              ; preds = %107
  %109 = load i64, ptr @H5E_FUNC_g, align 8, !tbaa !3
  %110 = load i64, ptr @H5E_CANTSET_g, align 8, !tbaa !3
  %111 = call i32 (ptr, ptr, i32, i64, i64, ptr, ...) @H5E_printf_stack(ptr noundef @.str, ptr noundef @__func__.H5Gopen2, i32 noundef 433, i64 noundef %109, i64 noundef %110, ptr noundef @.str.3)
  br label %112

112:                                              ; preds = %108
  br label %113

113:                                              ; preds = %112
  store i8 1, ptr %10, align 1, !tbaa !10
  %114 = load i8, ptr %10, align 1, !tbaa !10, !range !12, !noundef !13
  %115 = trunc i8 %114 to i1
  %116 = zext i1 %115 to i8
  store i8 %116, ptr %10, align 1, !tbaa !10
  br label %117

117:                                              ; preds = %113
  br label %118

118:                                              ; preds = %117
  br label %119

119:                                              ; preds = %118
  store i64 -1, ptr %7, align 8, !tbaa !3
  br label %154

120:                                              ; No predecessors!
  br label %121

121:                                              ; preds = %120
  br label %122

122:                                              ; preds = %121
  br label %123

123:                                              ; preds = %122
  br label %125

124:                                              ; preds = %96
  store i8 1, ptr %9, align 1, !tbaa !10
  br label %125

125:                                              ; preds = %124, %123
  br label %126

126:                                              ; preds = %125
  br label %127

127:                                              ; preds = %126
  %128 = call i32 @H5E_clear_stack()
  %129 = load i64, ptr %4, align 8, !tbaa !3
  %130 = load ptr, ptr %5, align 8, !tbaa !7
  %131 = load i64, ptr %6, align 8, !tbaa !3
  %132 = call i64 @H5G__open_api_common(i64 noundef %129, ptr noundef %130, i64 noundef %131, ptr noundef null, ptr noundef null)
  store i64 %132, ptr %7, align 8, !tbaa !3
  %133 = icmp slt i64 %132, 0
  br i1 %133, label %134, label %153

134:                                              ; preds = %127
  br label %135

135:                                              ; preds = %134
  br label %136

136:                                              ; preds = %135
  br label %137

137:                                              ; preds = %136
  %138 = load i64, ptr @H5E_SYM_g, align 8, !tbaa !3
  %139 = load i64, ptr @H5E_CANTCREATE_g, align 8, !tbaa !3
  %140 = call i32 (ptr, ptr, i32, i64, i64, ptr, ...) @H5E_printf_stack(ptr noundef @.str, ptr noundef @__func__.H5Gopen2, i32 noundef 437, i64 noundef %138, i64 noundef %139, ptr noundef @.str.25)
  br label %141

141:                                              ; preds = %137
  br label %142

142:                                              ; preds = %141
  store i8 1, ptr %10, align 1, !tbaa !10
  %143 = load i8, ptr %10, align 1, !tbaa !10, !range !12, !noundef !13
  %144 = trunc i8 %143 to i1
  %145 = zext i1 %144 to i8
  store i8 %145, ptr %10, align 1, !tbaa !10
  br label %146

146:                                              ; preds = %142
  br label %147

147:                                              ; preds = %146
  br label %148

148:                                              ; preds = %147
  store i64 -1, ptr %7, align 8, !tbaa !3
  br label %154

149:                                              ; No predecessors!
  br label %150

150:                                              ; preds = %149
  br label %151

151:                                              ; preds = %150
  br label %152

152:                                              ; preds = %151
  br label %153

153:                                              ; preds = %152, %127
  br label %154

154:                                              ; preds = %153, %148, %119, %87, %49
  %155 = load i8, ptr %9, align 1, !tbaa !10, !range !12, !noundef !13
  %156 = trunc i8 %155 to i1
  %157 = xor i1 %156, true
  %158 = xor i1 %157, true
  %159 = zext i1 %158 to i32
  %160 = sext i32 %159 to i64
  %161 = call i64 @llvm.expect.i64(i64 %160, i64 1)
  %162 = icmp ne i64 %161, 0
  br i1 %162, label %163, label %165

163:                                              ; preds = %154
  %164 = call i32 @H5CX_pop(i1 noundef zeroext true)
  store i8 0, ptr %9, align 1, !tbaa !10
  br label %165

165:                                              ; preds = %163, %154
  %166 = load i8, ptr %10, align 1, !tbaa !10, !range !12, !noundef !13
  %167 = trunc i8 %166 to i1
  %168 = xor i1 %167, true
  %169 = xor i1 %168, true
  %170 = zext i1 %169 to i32
  %171 = sext i32 %170 to i64
  %172 = call i64 @llvm.expect.i64(i64 %171, i64 0)
  %173 = icmp ne i64 %172, 0
  br i1 %173, label %174, label %176

174:                                              ; preds = %165
  %175 = call i32 @H5E_dump_api_stack()
  br label %176

176:                                              ; preds = %174, %165
  %177 = load i64, ptr %7, align 8, !tbaa !3
  call void @llvm.lifetime.end.p0(i64 1, ptr %10) #5
  call void @llvm.lifetime.end.p0(i64 1, ptr %9) #5
  call void @llvm.lifetime.end.p0(i64 480, ptr %8) #5
  call void @llvm.lifetime.end.p0(i64 8, ptr %7) #5
  ret i64 %177
}